target datalayout = "e-m:e-p270:32:32-p271:32:32-p272:64:64-i64:64-i128:128-f80:128-n8:16:32:64-S128"
target triple = "x86_64-pc-linux-gnu"

%struct.pointf_s = type { double, double }
%struct.GVJ_s = type { ptr, ptr, ptr, ptr, ptr, ptr, i32, ptr, ptr, ptr, ptr, i64, i64, ptr, i32, %struct.gvplugin_active_render_s, %struct.gvplugin_active_device_s, %struct.gvplugin_active_loadimage_t, ptr, %struct.pointf_s, i8, ptr, i32, ptr, i8, ptr, i32, i32, i32, %struct.point, %struct.point, %struct.point, %struct.point, %struct.point, i32, %struct.boxf, %struct.pointf_s, %struct.boxf, %struct.boxf, %struct.pointf_s, %struct.pointf_s, double, i32, %struct.pointf_s, %struct.boxf, %struct.pointf_s, %struct.pointf_s, i32, i32, %struct.box, %struct.box, %struct.pointf_s, %struct.pointf_s, %struct.pointf_s, i8, i8, i8, i8, i8, i8, %struct.pointf_s, %struct.pointf_s, ptr, ptr, ptr, ptr, ptr, ptr, i64, ptr }
%struct.gvplugin_active_render_s = type { ptr, i32, ptr, ptr }
%struct.gvplugin_active_device_s = type { ptr, i32, ptr, ptr }
%struct.gvplugin_active_loadimage_t = type { ptr, i32, ptr }
%struct.point = type { i32, i32 }
%struct.boxf = type { %struct.pointf_s, %struct.pointf_s }
%struct.box = type { %struct.point, %struct.point }
%struct.obj_state_s = type { ptr, i32, %union.anon, i32, %struct.color_s, %struct.color_s, %struct.color_s, i32, double, i32, i32, double, ptr, double, double, double, ptr, ptr, ptr, ptr, ptr, ptr, ptr, ptr, ptr, ptr, ptr, ptr, ptr, ptr, ptr, ptr, ptr, i16, i32, i64, ptr, i64, ptr, ptr, i32, ptr, i32, ptr }
%union.anon = type { ptr }
%struct.color_s = type { %union.anon.0, i32 }
%union.anon.0 = type { [4 x double] }

@Depth = internal global i32 0, align 4
@.str.30 = private unnamed_addr constant [54 x i8] c"%d %d %d %.0f %d %d %d %d %d %.1f %d %d %d %d %d %zu\0A\00", align 1
@.str.31 = private unnamed_addr constant [11 x i8] c" %.0f %.0f\00", align 1
@.str.32 = private unnamed_addr constant [2 x i8] c"\0A\00", align 1

; Function Attrs: nounwind uwtable
define internal void @figptarray(ptr noundef %0, ptr noundef %1, i64 noundef %2, i32 noundef %3) #0 {
  %5 = alloca ptr, align 8
  %6 = alloca ptr, align 8
  %7 = alloca i64, align 8
  %8 = alloca i32, align 4
  %9 = alloca i64, align 8
  store ptr %0, ptr %5, align 8, !tbaa !3
  store ptr %1, ptr %6, align 8, !tbaa !69
  store i64 %2, ptr %7, align 8, !tbaa !51
  store i32 %3, ptr %8, align 4, !tbaa !40
  call void @llvm.lifetime.start.p0(i64 8, ptr %9) #14
  store i64 0, ptr %9, align 8, !tbaa !51
  br label %10

10:                                               ; preds = %27, %4
  %11 = load i64, ptr %9, align 8, !tbaa !51
  %12 = load i64, ptr %7, align 8, !tbaa !51
  %13 = icmp ult i64 %11, %12
  br i1 %13, label %15, label %14

14:                                               ; preds = %10
  call void @llvm.lifetime.end.p0(i64 8, ptr %9) #14
  br label %30

15:                                               ; preds = %10
  %16 = load ptr, ptr %5, align 8, !tbaa !3
  %17 = load ptr, ptr %6, align 8, !tbaa !69
  %18 = load i64, ptr %9, align 8, !tbaa !51
  %19 = getelementptr inbounds nuw %struct.pointf_s, ptr %17, i64 %18
  %20 = getelementptr inbounds nuw %struct.pointf_s, ptr %19, i32 0, i32 0
  %21 = load double, ptr %20, align 8, !tbaa !57
  %22 = load ptr, ptr %6, align 8, !tbaa !69
  %23 = load i64, ptr %9, align 8, !tbaa !51
  %24 = getelementptr inbounds nuw %struct.pointf_s, ptr %22, i64 %23
  %25 = getelementptr inbounds nuw %struct.pointf_s, ptr %24, i32 0, i32 1
  %26 = load double, ptr %25, align 8, !tbaa !58
  call void (ptr, ptr, ...) @gvprintf(ptr noundef %16, ptr noundef @.str.31, double noundef %21, double noundef %26)
  br label %27

27:                                               ; preds = %15
  %28 = load i64, ptr %9, align 8, !tbaa !51
  %29 = add i64 %28, 1
  store i64 %29, ptr %9, align 8, !tbaa !51
  br label %10, !llvm.loop !89

30:                                               ; preds = %14
  %31 = load i32, ptr %8, align 4, !tbaa !40
  %32 = icmp ne i32 %31, 0
  br i1 %32, label %33, label %43

33:                                               ; preds = %30
  %34 = load ptr, ptr %5, align 8, !tbaa !3
  %35 = load ptr, ptr %6, align 8, !tbaa !69
  %36 = getelementptr inbounds %struct.pointf_s, ptr %35, i64 0
  %37 = getelementptr inbounds nuw %struct.pointf_s, ptr %36, i32 0, i32 0
  %38 = load double, ptr %37, align 8, !tbaa !57
  %39 = load ptr, ptr %6, align 8, !tbaa !69
  %40 = getelementptr inbounds %struct.pointf_s, ptr %39, i64 0
  %41 = getelementptr inbounds nuw %struct.pointf_s, ptr %40, i32 0, i32 1
  %42 = load double, ptr %41, align 8, !tbaa !58
  call void (ptr, ptr, ...) @gvprintf(ptr noundef %34, ptr noundef @.str.31, double noundef %38, double noundef %42)
  br label %43

43:                                               ; preds = %33, %30
  %44 = load ptr, ptr %5, align 8, !tbaa !3
  %45 = call i32 @gvputs(ptr noundef %44, ptr noundef @.str.32)
  ret void
}

; Function Attrs: nounwind uwtable
define internal void @fig_line_style(ptr noundef %0, ptr noundef %1, ptr noundef %2) #0 {
  %4 = alloca ptr, align 8
  %5 = alloca ptr, align 8
  %6 = alloca ptr, align 8
  store ptr %0, ptr %4, align 8, !tbaa !31
  store ptr %1, ptr %5, align 8, !tbaa !84
  store ptr %2, ptr %6, align 8, !tbaa !86
  %7 = load ptr, ptr %4, align 8, !tbaa !31
  %8 = getelementptr inbounds nuw %struct.obj_state_s, ptr %7, i32 0, i32 9
  %9 = load i32, ptr %8, align 8, !tbaa !88
  switch i32 %9, label %17 [
    i32 1, label %10
    i32 2, label %13
    i32 3, label %16
  ]

10:                                               ; preds = %3
  %11 = load ptr, ptr %5, align 8, !tbaa !84
  store i32 1, ptr %11, align 4, !tbaa !40
  %12 = load ptr, ptr %6, align 8, !tbaa !86
  store double 1.000000e+01, ptr %12, align 8, !tbaa !48
  br label %20

13:                                               ; preds = %3
  %14 = load ptr, ptr %5, align 8, !tbaa !84
  store i32 2, ptr %14, align 4, !tbaa !40
  %15 = load ptr, ptr %6, align 8, !tbaa !86
  store double 1.000000e+01, ptr %15, align 8, !tbaa !48
  br label %20

16:                                               ; preds = %3
  br label %17

17:                                               ; preds = %3, %16
  %18 = load ptr, ptr %5, align 8, !tbaa !84
  store i32 0, ptr %18, align 4, !tbaa !40
  %19 = load ptr, ptr %6, align 8, !tbaa !86
  store double 0.000000e+00, ptr %19, align 8, !tbaa !48
  br label %20

20:                                               ; preds = %17, %13, %10
  ret void
}

; Function Attrs: nounwind uwtable
define internal void @fig_polygon(ptr noundef %0, ptr noundef %1, i64 noundef %2, i32 noundef %3) #0 {
  %5 = alloca ptr, align 8
  %6 = alloca ptr, align 8
  %7 = alloca i64, align 8
  %8 = alloca i32, align 4
  %9 = alloca ptr, align 8
  %10 = alloca i32, align 4
  %11 = alloca i32, align 4
  %12 = alloca i32, align 4
  %13 = alloca double, align 8
  %14 = alloca i32, align 4
  %15 = alloca i32, align 4
  %16 = alloca i32, align 4
  %17 = alloca i32, align 4
  %18 = alloca i32, align 4
  %19 = alloca double, align 8
  %20 = alloca i32, align 4
  %21 = alloca i32, align 4
  %22 = alloca i32, align 4
  %23 = alloca i32, align 4
  %24 = alloca i32, align 4
  %25 = alloca i64, align 8
  store ptr %0, ptr %5, align 8, !tbaa !3
  store ptr %1, ptr %6, align 8, !tbaa !69
  store i64 %2, ptr %7, align 8, !tbaa !51
  store i32 %3, ptr %8, align 4, !tbaa !40
  call void @llvm.lifetime.start.p0(i64 8, ptr %9) #14
  %26 = load ptr, ptr %5, align 8, !tbaa !3
  %27 = getelementptr inbounds nuw %struct.GVJ_s, ptr %26, i32 0, i32 4
  %28 = load ptr, ptr %27, align 8, !tbaa !8
  store ptr %28, ptr %9, align 8, !tbaa !31
  call void @llvm.lifetime.start.p0(i64 4, ptr %10) #14
  store i32 2, ptr %10, align 4, !tbaa !40
  call void @llvm.lifetime.start.p0(i64 4, ptr %11) #14
  store i32 3, ptr %11, align 4, !tbaa !40
  call void @llvm.lifetime.start.p0(i64 4, ptr %12) #14
  call void @llvm.lifetime.start.p0(i64 8, ptr %13) #14
  %29 = load ptr, ptr %9, align 8, !tbaa !31
  %30 = getelementptr inbounds nuw %struct.obj_state_s, ptr %29, i32 0, i32 11
  %31 = load double, ptr %30, align 8, !tbaa !71
  %32 = call double @llvm.round.f64(double %31)
  store double %32, ptr %13, align 8, !tbaa !48
  call void @llvm.lifetime.start.p0(i64 4, ptr %14) #14
  %33 = load ptr, ptr %9, align 8, !tbaa !31
  %34 = getelementptr inbounds nuw %struct.obj_state_s, ptr %33, i32 0, i32 4
  %35 = getelementptr inbounds nuw %struct.color_s, ptr %34, i32 0, i32 0
  %36 = load i32, ptr %35, align 8, !tbaa !37
  store i32 %36, ptr %14, align 4, !tbaa !40
  call void @llvm.lifetime.start.p0(i64 4, ptr %15) #14
  %37 = load ptr, ptr %9, align 8, !tbaa !31
  %38 = getelementptr inbounds nuw %struct.obj_state_s, ptr %37, i32 0, i32 5
  %39 = getelementptr inbounds nuw %struct.color_s, ptr %38, i32 0, i32 0
  %40 = load i32, ptr %39, align 8, !tbaa !37
  store i32 %40, ptr %15, align 4, !tbaa !40
  call void @llvm.lifetime.start.p0(i64 4, ptr %16) #14
  %41 = load i32, ptr @Depth, align 4, !tbaa !40
  store i32 %41, ptr %16, align 4, !tbaa !40
  call void @llvm.lifetime.start.p0(i64 4, ptr %17) #14
  store i32 0, ptr %17, align 4, !tbaa !40
  call void @llvm.lifetime.start.p0(i64 4, ptr %18) #14
  %42 = load i32, ptr %8, align 4, !tbaa !40
  %43 = icmp ne i32 %42, 0
  %44 = select i1 %43, i32 20, i32 -1
  store i32 %44, ptr %18, align 4, !tbaa !40
  call void @llvm.lifetime.start.p0(i64 8, ptr %19) #14
  call void @llvm.lifetime.start.p0(i64 4, ptr %20) #14
  store i32 0, ptr %20, align 4, !tbaa !40
  call void @llvm.lifetime.start.p0(i64 4, ptr %21) #14
  store i32 0, ptr %21, align 4, !tbaa !40
  call void @llvm.lifetime.start.p0(i64 4, ptr %22) #14
  store i32 0, ptr %22, align 4, !tbaa !40
  call void @llvm.lifetime.start.p0(i64 4, ptr %23) #14
  store i32 0, ptr %23, align 4, !tbaa !40
  call void @llvm.lifetime.start.p0(i64 4, ptr %24) #14
  store i32 0, ptr %24, align 4, !tbaa !40
  call void @llvm.lifetime.start.p0(i64 8, ptr %25) #14
  %45 = load i64, ptr %7, align 8, !tbaa !51
  %46 = add i64 %45, 1
  store i64 %46, ptr %25, align 8, !tbaa !51
  %47 = load ptr, ptr %9, align 8, !tbaa !31
  call void @fig_line_style(ptr noundef %47, ptr noundef %12, ptr noundef %19)
  %48 = load ptr, ptr %5, align 8, !tbaa !3
  %49 = load i32, ptr %10, align 4, !tbaa !40
  %50 = load i32, ptr %11, align 4, !tbaa !40
  %51 = load i32, ptr %12, align 4, !tbaa !40
  %52 = load double, ptr %13, align 8, !tbaa !48
  %53 = load i32, ptr %14, align 4, !tbaa !40
  %54 = load i32, ptr %15, align 4, !tbaa !40
  %55 = load i32, ptr %16, align 4, !tbaa !40
  %56 = load i32, ptr %17, align 4, !tbaa !40
  %57 = load i32, ptr %18, align 4, !tbaa !40
  %58 = load double, ptr %19, align 8, !tbaa !48
  %59 = load i32, ptr %20, align 4, !tbaa !40
  %60 = load i32, ptr %21, align 4, !tbaa !40
  %61 = load i32, ptr %22, align 4, !tbaa !40
  %62 = load i32, ptr %23, align 4, !tbaa !40
  %63 = load i32, ptr %24, align 4, !tbaa !40
  %64 = load i64, ptr %25, align 8, !tbaa !51
  call void (ptr, ptr, ...) @gvprintf(ptr noundef %48, ptr noundef @.str.30, i32 noundef %49, i32 noundef %50, i32 noundef %51, double noundef %52, i32 noundef %53, i32 noundef %54, i32 noundef %55, i32 noundef %56, i32 noundef %57, double noundef %58, i32 noundef %59, i32 noundef %60, i32 noundef %61, i32 noundef %62, i32 noundef %63, i64 noundef %64)
  %65 = load ptr, ptr %5, align 8, !tbaa !3
  %66 = load ptr, ptr %6, align 8, !tbaa !69
  %67 = load i64, ptr %7, align 8, !tbaa !51
  call void @figptarray(ptr noundef %65, ptr noundef %66, i64 noundef %67, i32 noundef 1)
  call void @llvm.lifetime.end.p0(i64 8, ptr %25) #14
  call void @llvm.lifetime.end.p0(i64 4, ptr %24) #14
  call void @llvm.lifetime.end.p0(i64 4, ptr %23) #14
  call void @llvm.lifetime.end.p0(i64 4, ptr %22) #14
  call void @llvm.lifetime.end.p0(i64 4, ptr %21) #14
  call void @llvm.lifetime.end.p0(i64 4, ptr %20) #14
  call void @llvm.lifetime.end.p0(i64 8, ptr %19) #14
  call void @llvm.lifetime.end.p0(i64 4, ptr %18) #14
  call void @llvm.lifetime.end.p0(i64 4, ptr %17) #14
  call void @llvm.lifetime.end.p0(i64 4, ptr %16) #14
  call void @llvm.lifetime.end.p0(i64 4, ptr %15) #14
  call void @llvm.lifetime.end.p0(i64 4, ptr %14) #14
  call void @llvm.lifetime.end.p0(i64 8, ptr %13) #14
  call void @llvm.lifetime.end.p0(i64 4, ptr %12) #14
  call void @llvm.lifetime.end.p0(i64 4, ptr %11) #14
  call void @llvm.lifetime.end.p0(i64 4, ptr %10) #14
  call void @llvm.lifetime.end.p0(i64 8, ptr %9) #14
  ret void
}