; Function Attrs: nounwind uwtable
define internal void @fig_polygon(ptr noundef %0, ptr noundef readonly captures(none) %1, i64 noundef %2, i32 noundef %3) #0 {
fig_line_style.exit:
  %4 = getelementptr inbounds nuw i8, ptr %0, i64 32
  %5 = load ptr, ptr %4, align 8, !tbaa !3
  %6 = getelementptr inbounds nuw i8, ptr %5, i64 176
  %7 = load double, ptr %6, align 8, !tbaa !59
  %8 = tail call double @llvm.round.f64(double %7)
  %9 = getelementptr inbounds nuw i8, ptr %5, i64 32
  %10 = load i32, ptr %9, align 8, !tbaa !35
  %11 = getelementptr inbounds nuw i8, ptr %5, i64 72
  %12 = load i32, ptr %11, align 8, !tbaa !35
  %13 = load i32, ptr @Depth, align 4, !tbaa !38
  %.not = icmp eq i32 %3, 0
  %14 = select i1 %.not, i32 -1, i32 20
  %15 = add i64 %2, 1
  %16 = getelementptr i8, ptr %5, i64 168
  %.val = load i32, ptr %16, align 8, !tbaa !63
  %.val.off = add i32 %.val, -1
  %switch = icmp ult i32 %.val.off, 2
  %.sink1.i = select i1 %switch, i32 %.val, i32 0
  %.sink.i = select i1 %switch, double 1.000000e+01, double 0.000000e+00
  tail call void (ptr, ptr, ...) @gvprintf(ptr noundef nonnull %0, ptr noundef nonnull @.str.30, i32 noundef 2, i32 noundef 3, i32 noundef %.sink1.i, double noundef %8, i32 noundef %10, i32 noundef %12, i32 noundef %13, i32 noundef 0, i32 noundef %14, double noundef %.sink.i, i32 noundef 0, i32 noundef 0, i32 noundef 0, i32 noundef 0, i32 noundef 0, i64 noundef %15) #18
  %.not13.i = icmp eq i64 %2, 0
  br i1 %.not13.i, label %figptarray.exit, label %.lr.ph.i

.lr.ph.i:                                         ; preds = %fig_line_style.exit, %.lr.ph.i
  %.012.i = phi i64 [ %21, %.lr.ph.i ], [ 0, %fig_line_style.exit ]
  %17 = getelementptr inbounds nuw %struct.pointf_s, ptr %1, i64 %.012.i
  %18 = load double, ptr %17, align 8, !tbaa !64
  %19 = getelementptr inbounds nuw i8, ptr %17, i64 8
  %20 = load double, ptr %19, align 8, !tbaa !65
  tail call void (ptr, ptr, ...) @gvprintf(ptr noundef nonnull %0, ptr noundef nonnull @.str.31, double noundef %18, double noundef %20) #18
  %21 = add nuw i64 %.012.i, 1
  %exitcond.not.i = icmp eq i64 %21, %2
  br i1 %exitcond.not.i, label %figptarray.exit, label %.lr.ph.i, !llvm.loop !66

figptarray.exit:                                  ; preds = %.lr.ph.i, %fig_line_style.exit
  %22 = load double, ptr %1, align 8, !tbaa !64
  %23 = getelementptr inbounds nuw i8, ptr %1, i64 8
  %24 = load double, ptr %23, align 8, !tbaa !65
  tail call void (ptr, ptr, ...) @gvprintf(ptr noundef nonnull %0, ptr noundef nonnull @.str.31, double noundef %22, double noundef %24) #18
  %25 = tail call i32 @gvputs(ptr noundef nonnull %0, ptr noundef nonnull @.str.32) #18
  ret void
}